target datalayout = "e-m:e-p270:32:32-p271:32:32-p272:64:64-i64:64-i128:128-f80:128-n8:16:32:64-S128"
target triple = "x86_64-pc-linux-gnu"

%class.LiveRangeMap = type { i32, %class.GrowableArray, %class.GrowableArray }
%class.GrowableArray = type { %class.GrowableArrayWithAllocator, %class.GrowableArrayMetadata }
%class.GrowableArrayWithAllocator = type { %class.GrowableArrayView }
%class.GrowableArrayView = type { %class.GrowableArrayBase, ptr }
%class.GrowableArrayBase = type { i32, i32 }
%class.GrowableArrayMetadata = type { i64 }

; Function Attrs: mustprogress nounwind uwtable
define linkonce_odr hidden noundef nonnull align 4 dereferenceable(4) ptr @_ZNK17GrowableArrayViewIjE2atEi(ptr noundef nonnull align 8 dereferenceable(16) %0, i32 noundef %1) #1 comdat align 2 {
  %3 = alloca ptr, align 8
  %4 = alloca i32, align 4
  store ptr %0, ptr %3, align 8
  store i32 %1, ptr %4, align 4
  %5 = load ptr, ptr %3, align 8
  %6 = getelementptr inbounds %class.GrowableArrayView, ptr %5, i32 0, i32 1
  %7 = load ptr, ptr %6, align 8
  %8 = load i32, ptr %4, align 4
  %9 = sext i32 %8 to i64
  %10 = getelementptr inbounds i32, ptr %7, i64 %9
  ret ptr %10
}

; Function Attrs: mustprogress nounwind uwtable
define hidden noundef i32 @_ZNK12LiveRangeMap10find_constEj(ptr noundef nonnull align 8 dereferenceable(56) %0, i32 noundef %1) #1 align 2 {
  %3 = alloca i32, align 4
  %4 = alloca ptr, align 8
  %5 = alloca i32, align 4
  %6 = alloca i32, align 4
  store ptr %0, ptr %4, align 8
  store i32 %1, ptr %5, align 4
  %7 = load ptr, ptr %4, align 8
  %8 = load i32, ptr %5, align 4
  %9 = icmp ne i32 %8, 0
  br i1 %9, label %12, label %10

10:                                               ; preds = %2
  %11 = load i32, ptr %5, align 4
  store i32 %11, ptr %3, align 4
  br label %36

12:                                               ; preds = %2
  %13 = load i32, ptr %5, align 4
  %14 = getelementptr inbounds %class.LiveRangeMap, ptr %7, i32 0, i32 0
  %15 = load i32, ptr %14, align 8
  %16 = icmp uge i32 %13, %15
  br i1 %16, label %17, label %19

17:                                               ; preds = %12
  %18 = load i32, ptr %5, align 4
  store i32 %18, ptr %3, align 4
  br label %36

19:                                               ; preds = %12
  %20 = getelementptr inbounds %class.LiveRangeMap, ptr %7, i32 0, i32 1
  %21 = load i32, ptr %5, align 4
  %22 = call noundef nonnull align 4 dereferenceable(4) ptr @_ZNK17GrowableArrayViewIjE2atEi(ptr noundef nonnull align 8 dereferenceable(16) %20, i32 noundef %21)
  %23 = load i32, ptr %22, align 4
  store i32 %23, ptr %6, align 4
  br label %24

24:                                               ; preds = %28, %19
  %25 = load i32, ptr %6, align 4
  %26 = load i32, ptr %5, align 4
  %27 = icmp ne i32 %25, %26
  br i1 %27, label %28, label %34

28:                                               ; preds = %24
  %29 = load i32, ptr %6, align 4
  store i32 %29, ptr %5, align 4
  %30 = getelementptr inbounds %class.LiveRangeMap, ptr %7, i32 0, i32 1
  %31 = load i32, ptr %5, align 4
  %32 = call noundef nonnull align 4 dereferenceable(4) ptr @_ZNK17GrowableArrayViewIjE2atEi(ptr noundef nonnull align 8 dereferenceable(16) %30, i32 noundef %31)
  %33 = load i32, ptr %32, align 4
  store i32 %33, ptr %6, align 4
  br label %24, !llvm.loop !12

34:                                               ; preds = %24
  %35 = load i32, ptr %6, align 4
  store i32 %35, ptr %3, align 4
  br label %36

36:                                               ; preds = %34, %17, %10
  %37 = load i32, ptr %3, align 4
  ret i32 %37
}