; Function Attrs: mustprogress nofree norecurse nosync nounwind willreturn memory(read, inaccessiblemem: none) uwtable
define hidden noundef i32 @_ZNK12LiveRangeMap10find_constEj(ptr nocapture noundef nonnull readonly align 8 dereferenceable(56) %0, i32 noundef %1) local_unnamed_addr #3 align 2 {
  %.not = icmp eq i32 %1, 0
  br i1 %.not, label %.loopexit, label %3

3:                                                ; preds = %2
  %4 = load i32, ptr %0, align 8
  %.not14 = icmp ugt i32 %4, %1
  br i1 %.not14, label %5, label %.loopexit

5:                                                ; preds = %3
  %6 = getelementptr inbounds i8, ptr %0, i64 16
  %7 = load ptr, ptr %6, align 8
  br label %8

8:                                                ; preds = %8, %5
  %.011 = phi i32 [ %1, %5 ], [ %.0, %8 ]
  %.pn = sext i32 %.011 to i64
  %.0.in = getelementptr inbounds i32, ptr %7, i64 %.pn
  %.0 = load i32, ptr %.0.in, align 4
  %.not15 = icmp eq i32 %.0, %.011
  br i1 %.not15, label %.loopexit, label %8, !llvm.loop !12

.loopexit:                                        ; preds = %8, %3, %2
  %.012 = phi i32 [ 0, %2 ], [ %1, %3 ], [ %.011, %8 ]
  ret i32 %.012
}